BL51 BANKED LINKER/LOCATER V6.22                                                        04/11/2022  01:47:05  PAGE 1


BL51 BANKED LINKER/LOCATER V6.22, INVOKED BY:
E:\KEILC51\C51\BIN\BL51.EXE .\Objects\main.obj TO .\Objects\test PRINT (.\Listings\test.m51) RAMSIZE (256)


MEMORY MODEL: LARGE


INPUT MODULES INCLUDED:
  .\Objects\main.obj (MAIN)
  E:\KEILC51\C51\LIB\C51L.LIB (?C_STARTUP)
  E:\KEILC51\C51\LIB\C51L.LIB (?C?COPY)
  E:\KEILC51\C51\LIB\C51L.LIB (?C?CLDOPTR)
  E:\KEILC51\C51\LIB\C51L.LIB (?C?ILDPTR)
  E:\KEILC51\C51\LIB\C51L.LIB (?C?PLDOPTR)
  E:\KEILC51\C51\LIB\C51L.LIB (?C?PSTOPTR)
  E:\KEILC51\C51\LIB\C51L.LIB (?C?ICALL)
  E:\KEILC51\C51\LIB\C51L.LIB (PRINTF)
  E:\KEILC51\C51\LIB\C51L.LIB (?C_INIT)
  E:\KEILC51\C51\LIB\C51L.LIB (?C?CLDPTR)
  E:\KEILC51\C51\LIB\C51L.LIB (?C?CSTPTR)
  E:\KEILC51\C51\LIB\C51L.LIB (?C?PLDIDATA)
  E:\KEILC51\C51\LIB\C51L.LIB (?C?PSTIDATA)
  E:\KEILC51\C51\LIB\C51L.LIB (?C?PLDXDATA)
  E:\KEILC51\C51\LIB\C51L.LIB (?C?PLDIXDATA)
  E:\KEILC51\C51\LIB\C51L.LIB (?C?PSTXDATA)
  E:\KEILC51\C51\LIB\C51L.LIB (?C?PLDPDATA)
  E:\KEILC51\C51\LIB\C51L.LIB (?C?PSTPDATA)
  E:\KEILC51\C51\LIB\C51L.LIB (?C?PLDCODE)
  E:\KEILC51\C51\LIB\C51L.LIB (?C?CCASE)


LINK MAP OF MODULE:  .\Objects\test (MAIN)


            TYPE    BASE      LENGTH    RELOCATION   SEGMENT NAME
            -----------------------------------------------------

            * * * * * * *   D A T A   M E M O R Y   * * * * * * *
            REG     0000H     0008H     ABSOLUTE     "REG BANK 0"
            DATA    0008H     0005H     UNIT         _DATA_GROUP_
                    000DH     0013H                  *** GAP ***
            BIT     0020H.0   0001H.1   UNIT         _BIT_GROUP_
                    0021H.1   0000H.7                *** GAP ***
            IDATA   0022H     0001H     UNIT         ?STACK

            * * * * * * *  X D A T A   M E M O R Y  * * * * * * *
            XDATA   0000H     006DH     UNIT         _XDATA_GROUP_
            XDATA   006DH     0007H     UNIT         ?XD?MAIN

            * * * * * * *   C O D E   M E M O R Y   * * * * * * *
            CODE    0000H     0003H     ABSOLUTE     
            CODE    0003H     0003H     ABSOLUTE     
            CODE    0006H     0008H     UNIT         ?PR?_U1SEND_C?MAIN
                    000EH     0005H                  *** GAP ***
            CODE    0013H     0003H     ABSOLUTE     
            CODE    0016H     0365H     UNIT         ?PR?PRINTF?PRINTF
            CODE    037BH     0287H     UNIT         ?C?LIB_CODE
            CODE    0602H     0141H     UNIT         ?CO?MAIN
BL51 BANKED LINKER/LOCATER V6.22                                                      04/11/2022  01:47:05  PAGE 2


            CODE    0743H     0099H     UNIT         ?PR?MAIN?MAIN
            CODE    07DCH     008CH     UNIT         ?PR?OS_INIT?MAIN
            CODE    0868H     008CH     UNIT         ?C_C51STARTUP
            CODE    08F4H     0070H     UNIT         ?PR?REGISTER_THREADS?MAIN
            CODE    0964H     0065H     UNIT         ?PR?INT0_ISR?MAIN
            CODE    09C9H     0058H     UNIT         ?PR?_LCD1602_DIS_LINE?MAIN
            CODE    0A21H     0056H     UNIT         ?PR?INT1_ISR?MAIN
            CODE    0A77H     0043H     UNIT         ?PR?_THREAD_LIST?MAIN
            CODE    0ABAH     002BH     UNIT         ?PR?_THREAD_INDEX?MAIN
            CODE    0AE5H     0021H     UNIT         ?PR?_DELAY?MAIN
            CODE    0B06H     001CH     UNIT         ?PR?LCD1602_INIT?MAIN
            CODE    0B22H     0017H     UNIT         ?PR?UART1_INIT?MAIN
            CODE    0B39H     0016H     UNIT         ?PR?_LCD1602_WRITE?MAIN
            CODE    0B4FH     0014H     UNIT         ?PR?THREAD_TWO?MAIN
            CODE    0B63H     0014H     UNIT         ?PR?THREAD_THREE?MAIN
            CODE    0B77H     0014H     UNIT         ?PR?THREAD_FOUR?MAIN
            CODE    0B8BH     0012H     UNIT         ?PR?THREAD_ONE?MAIN
            CODE    0B9DH     0011H     UNIT         ?C_INITSEG
            CODE    0BAEH     0006H     UNIT         ?PR?_PUTCHAR?MAIN



OVERLAY MAP OF MODULE:   .\Objects\test (MAIN)


SEGMENT                               BIT_GROUP          DATA_GROUP          XDATA_GROUP
  +--> CALLED SEGMENT              START    LENGTH     START    LENGTH     START    LENGTH
------------------------------------------------------------------------------------------
?PR?INT1_ISR?MAIN                  -----    -----      -----    -----      0000H    0002H
  +--> ?PR?_DELAY?MAIN

*** NEW ROOT ***************************************************

?C_C51STARTUP                      -----    -----      -----    -----      -----    -----
  +--> ?PR?MAIN?MAIN
  +--> ?C_INITSEG

?PR?MAIN?MAIN                      -----    -----      -----    -----      0002H    0003H
  +--> ?PR?OS_INIT?MAIN
  +--> ?CO?MAIN
  +--> ?PR?PRINTF?PRINTF
  +--> ?PR?_THREAD_INDEX?MAIN
  +--> ?PR?_LCD1602_DIS_LINE?MAIN

?PR?OS_INIT?MAIN                   -----    -----      -----    -----      -----    -----
  +--> ?PR?_DELAY?MAIN
  +--> ?PR?UART1_INIT?MAIN
  +--> ?PR?LCD1602_INIT?MAIN
  +--> ?CO?MAIN
  +--> ?PR?_LCD1602_DIS_LINE?MAIN
  +--> ?PR?PRINTF?PRINTF
  +--> ?PR?REGISTER_THREADS?MAIN

?PR?LCD1602_INIT?MAIN              -----    -----      -----    -----      -----    -----
  +--> ?PR?_LCD1602_WRITE?MAIN

?PR?_LCD1602_WRITE?MAIN            -----    -----      -----    -----      -----    -----
BL51 BANKED LINKER/LOCATER V6.22                                                      04/11/2022  01:47:05  PAGE 3


  +--> ?PR?_DELAY?MAIN

?CO?MAIN                           -----    -----      -----    -----      -----    -----
  +--> ?PR?THREAD_FOUR?MAIN
  +--> ?PR?THREAD_TWO?MAIN
  +--> ?PR?THREAD_THREE?MAIN
  +--> ?PR?THREAD_ONE?MAIN

?PR?THREAD_FOUR?MAIN               -----    -----      -----    -----      -----    -----
  +--> ?PR?_LCD1602_DIS_LINE?MAIN

?PR?_LCD1602_DIS_LINE?MAIN         -----    -----      -----    -----      0069H    0004H
  +--> ?PR?_LCD1602_WRITE?MAIN
  +--> ?PR?_DELAY?MAIN

?PR?THREAD_TWO?MAIN                -----    -----      -----    -----      -----    -----
  +--> ?PR?_LCD1602_DIS_LINE?MAIN

?PR?THREAD_THREE?MAIN              -----    -----      -----    -----      -----    -----
  +--> ?PR?_LCD1602_DIS_LINE?MAIN

?PR?THREAD_ONE?MAIN                -----    -----      -----    -----      -----    -----
  +--> ?PR?_LCD1602_DIS_LINE?MAIN

?PR?PRINTF?PRINTF                  0020H.0  0001H.1    0008H    0005H      0005H    0028H
  +--> ?PR?_PUTCHAR?MAIN

?PR?_PUTCHAR?MAIN                  -----    -----      -----    -----      -----    -----
  +--> ?PR?_U1SEND_C?MAIN

?PR?REGISTER_THREADS?MAIN          -----    -----      -----    -----      0005H    0064H
  +--> ?CO?MAIN
  +--> ?PR?_THREAD_LIST?MAIN

?PR?_THREAD_LIST?MAIN              -----    -----      -----    -----      0069H    0003H



SYMBOL TABLE OF MODULE:  .\Objects\test (MAIN)

  VALUE           TYPE          NAME
  ----------------------------------

  -------         MODULE        MAIN
  C:0000H         SYMBOL        _ICE_DUMMY_
  D:0093H         PUBLIC        P0M1
  C:0B8BH         PUBLIC        Thread_one
  D:0096H         PUBLIC        P2M0
  D:0080H         PUBLIC        P0
  D:0095H         PUBLIC        P2M1
  D:0090H         PUBLIC        P1
  D:00A0H         PUBLIC        P2
  D:00B0H         PUBLIC        P3
  D:00C0H         PUBLIC        P4
  D:00E2H         PUBLIC        P7M0
  D:00C8H         PUBLIC        P5
  D:00E1H         PUBLIC        P7M1
BL51 BANKED LINKER/LOCATER V6.22                                                      04/11/2022  01:47:05  PAGE 4


  B:00A8H.7       PUBLIC        EA
  D:00F8H         PUBLIC        P7
  C:09CFH         PUBLIC        _LCD1602_Dis_Line
  C:0B39H         PUBLIC        _LCD1602_Write
  B:0080H.7       PUBLIC        EC11_B
  B:00B0H.3       PUBLIC        EC11_C
  D:00A8H         PUBLIC        IE
  C:0AE9H         PUBLIC        _delay
  X:006DH         PUBLIC        g_pThread
  C:0B06H         PUBLIC        LCD1602_Init
  C:0B4FH         PUBLIC        Thread_two
  C:07DCH         PUBLIC        OS_Init
  D:00B8H         PUBLIC        IP
  B:0098H.0       PUBLIC        RI
  B:0098H.1       PUBLIC        TI
  C:0743H         PUBLIC        main
  C:0964H         PUBLIC        INT0_Isr
  C:0A21H         PUBLIC        INT1_Isr
  D:0099H         PUBLIC        SBUF
  D:0098H         PUBLIC        SCON
  D:0088H         PUBLIC        TCON
  C:0ABAH         PUBLIC        _Thread_Index
  D:008EH         PUBLIC        AUXR
  C:06DFH         SYMBOL        _?ix1000
  C:06F8H         SYMBOL        _?ix1001
  C:0711H         SYMBOL        _?ix1002
  C:072AH         SYMBOL        _?ix1003
  B:00A8H.0       PUBLIC        EX0
  B:0088H.0       PUBLIC        IT0
  D:00D6H         PUBLIC        T2H
  B:00A8H.2       PUBLIC        EX1
  B:0088H.2       PUBLIC        IT1
  D:00D7H         PUBLIC        T2L
  C:0006H         PUBLIC        _U1SEND_C
  C:0B63H         PUBLIC        Thread_three
  C:0A77H         PUBLIC        _Thread_List
  C:0B22H         PUBLIC        UART1_Init
  B:00F8H.6       PUBLIC        LCDEN
  X:0070H         PUBLIC        List_Index
  B:00F8H.4       PUBLIC        LCDRS
  C:0B77H         PUBLIC        Thread_four
  C:08F4H         PUBLIC        Register_Threads
  X:0072H         PUBLIC        List_Flag
  D:00D0H         PUBLIC        PSW
  C:0BAEH         PUBLIC        _putchar
  B:00F8H.5       PUBLIC        LCDRW
  D:0094H         PUBLIC        P0M0
  -------         PROC          MAIN
  -------         DO            
  X:0002H         SYMBOL        ptThread
  -------         ENDDO         
  C:0743H         LINE#         79
  C:0743H         LINE#         80
  C:0743H         LINE#         81
  C:074CH         LINE#         83
  C:074FH         LINE#         86
  C:0758H         LINE#         87
BL51 BANKED LINKER/LOCATER V6.22                                                      04/11/2022  01:47:05  PAGE 5


  C:0761H         LINE#         88
  C:076AH         LINE#         89
  C:0773H         LINE#         91
  C:0773H         LINE#         92
  C:0773H         LINE#         94
  C:078BH         LINE#         95
  C:07A1H         LINE#         98
  C:07ABH         LINE#         99
  C:07ABH         LINE#         100
  C:07BFH         LINE#         101
  C:07C7H         LINE#         102
  C:07C7H         LINE#         104
  C:07DAH         LINE#         105
  -------         ENDPROC       MAIN
  -------         PROC          OS_INIT
  C:07DCH         LINE#         108
  C:07DCH         LINE#         109
  C:07DCH         LINE#         111
  C:07DFH         LINE#         112
  C:07E2H         LINE#         114
  C:07E5H         LINE#         115
  C:07E7H         LINE#         117
  C:07EAH         LINE#         118
  C:07EDH         LINE#         119
  C:07F3H         LINE#         122
  C:07F5H         LINE#         123
  C:07F7H         LINE#         124
  C:07F9H         LINE#         126
  C:07FBH         LINE#         127
  C:07FEH         LINE#         128
  C:0801H         LINE#         129
  C:080DH         LINE#         130
  C:0814H         LINE#         131
  C:081CH         LINE#         132
  C:082DH         LINE#         133
  C:0830H         LINE#         134
  C:0848H         LINE#         135
  C:084BH         LINE#         136
  C:0863H         LINE#         138
  C:0865H         LINE#         139
  C:0867H         LINE#         141
  -------         ENDPROC       OS_INIT
  -------         PROC          _THREAD_INDEX
  D:0006H         SYMBOL        Index
  -------         DO            
  D:0001H         SYMBOL        ptTmp
  -------         ENDDO         
  C:0ABAH         LINE#         145
  C:0ABAH         LINE#         146
  C:0ABAH         LINE#         147
  C:0AC5H         LINE#         148
  C:0ACAH         LINE#         149
  C:0ACAH         LINE#         150
  C:0AD5H         LINE#         151
  C:0AD6H         LINE#         152
  C:0ADCH         LINE#         153
  C:0ADEH         LINE#         154
BL51 BANKED LINKER/LOCATER V6.22                                                      04/11/2022  01:47:05  PAGE 6


  C:0AE4H         LINE#         155
  -------         ENDPROC       _THREAD_INDEX
  -------         PROC          REGISTER_THREADS
  -------         DO            
  X:0005H         SYMBOL        tThread4
  X:001EH         SYMBOL        tThread2
  X:0037H         SYMBOL        tThread3
  X:0050H         SYMBOL        tThread1
  -------         ENDDO         
  C:08F4H         LINE#         168
  C:08F4H         LINE#         169
  C:08F4H         LINE#         170
  C:0907H         LINE#         171
  C:091AH         LINE#         172
  C:092DH         LINE#         173
  C:0940H         LINE#         175
  C:0949H         LINE#         176
  C:0952H         LINE#         177
  C:095BH         LINE#         178
  -------         ENDPROC       REGISTER_THREADS
  -------         PROC          _THREAD_LIST
  X:0069H         SYMBOL        ptThread
  C:0A77H         LINE#         186
  C:0A82H         LINE#         187
  C:0A82H         LINE#         188
  C:0AA4H         LINE#         189
  C:0AB9H         LINE#         190
  -------         ENDPROC       _THREAD_LIST
  -------         PROC          THREAD_ONE
  C:0B8BH         LINE#         194
  C:0B8BH         LINE#         195
  C:0B8BH         LINE#         196
  C:0B8BH         LINE#         197
  C:0B8BH         LINE#         198
  C:0B92H         LINE#         199
  -------         ENDPROC       THREAD_ONE
  -------         PROC          THREAD_TWO
  C:0B4FH         LINE#         203
  C:0B4FH         LINE#         204
  C:0B4FH         LINE#         205
  C:0B4FH         LINE#         206
  C:0B4FH         LINE#         207
  C:0B58H         LINE#         208
  -------         ENDPROC       THREAD_TWO
  -------         PROC          THREAD_THREE
  C:0B63H         LINE#         212
  C:0B63H         LINE#         213
  C:0B63H         LINE#         214
  C:0B63H         LINE#         215
  C:0B63H         LINE#         216
  C:0B6CH         LINE#         217
  -------         ENDPROC       THREAD_THREE
  -------         PROC          THREAD_FOUR
  C:0B77H         LINE#         221
  C:0B77H         LINE#         222
  C:0B77H         LINE#         223
  C:0B77H         LINE#         224
BL51 BANKED LINKER/LOCATER V6.22                                                      04/11/2022  01:47:05  PAGE 7


  C:0B77H         LINE#         225
  C:0B80H         LINE#         226
  -------         ENDPROC       THREAD_FOUR
  C:0AE5H         SYMBOL        L?0079
  -------         PROC          L?0078
  -------         ENDPROC       L?0078
  C:0AE5H         SYMBOL        L?0079
  -------         PROC          _DELAY
  D:0006H         SYMBOL        Count
  -------         DO            
  D:0005H         SYMBOL        i
  D:0004H         SYMBOL        j
  -------         ENDDO         
  C:0AE9H         LINE#         234
  C:0AE9H         LINE#         235
  C:0AE9H         LINE#         237
  C:0AF3H         LINE#         238
  C:0AF3H         LINE#         239
  C:0AFBH         LINE#         240
  C:0B05H         LINE#         241
  C:0B05H         LINE#         242
  -------         ENDPROC       _DELAY
  -------         PROC          _LCD1602_WRITE
  D:0007H         SYMBOL        cmdordata
  D:0005H         SYMBOL        writetype
  C:0B39H         LINE#         247
  C:0B39H         LINE#         248
  C:0B39H         LINE#         249
  C:0B3CH         LINE#         250
  C:0B40H         LINE#         252
  C:0B42H         LINE#         253
  C:0B44H         LINE#         254
  C:0B47H         LINE#         255
  C:0B49H         LINE#         256
  C:0B4CH         LINE#         257
  C:0B4EH         LINE#         258
  -------         ENDPROC       _LCD1602_WRITE
  -------         PROC          LCD1602_INIT
  C:0B06H         LINE#         262
  C:0B06H         LINE#         263
  C:0B06H         LINE#         264
  C:0B0DH         LINE#         265
  C:0B14H         LINE#         266
  C:0B1BH         LINE#         267
  -------         ENDPROC       LCD1602_INIT
  C:09CBH         SYMBOL        L?0077
  -------         PROC          L?0076
  -------         ENDPROC       L?0076
  C:09CBH         SYMBOL        L?0077
  -------         PROC          _LCD1602_DIS_LINE
  X:0069H         SYMBOL        str
  D:0004H         SYMBOL        y
  -------         DO            
  X:006CH         SYMBOL        i
  -------         ENDDO         
  C:09CFH         LINE#         274
  C:09DAH         LINE#         275
BL51 BANKED LINKER/LOCATER V6.22                                                      04/11/2022  01:47:05  PAGE 8


  C:09DAH         LINE#         277
  C:09DEH         LINE#         278
  C:09E3H         LINE#         279
  C:09EAH         LINE#         280
  C:09EDH         LINE#         281
  C:09FCH         LINE#         282
  C:09FCH         LINE#         283
  C:0A15H         LINE#         284
  C:0A18H         LINE#         285
  C:0A20H         LINE#         286
  -------         ENDPROC       _LCD1602_DIS_LINE
  -------         PROC          UART1_INIT
  C:0B22H         LINE#         291
  C:0B22H         LINE#         292
  C:0B22H         LINE#         293
  C:0B25H         LINE#         294
  C:0B28H         LINE#         295
  C:0B2BH         LINE#         296
  C:0B2EH         LINE#         297
  C:0B31H         LINE#         298
  C:0B34H         LINE#         299
  C:0B38H         LINE#         300
  -------         ENDPROC       UART1_INIT
  -------         PROC          _U1SEND_C
  D:0007H         SYMBOL        SEND_C
  C:0006H         LINE#         305
  C:0006H         LINE#         306
  C:0006H         LINE#         307
  C:0008H         LINE#         308
  C:000AH         LINE#         309
  C:000DH         LINE#         310
  -------         ENDPROC       _U1SEND_C
  -------         PROC          _PUTCHAR
  D:0006H         SYMBOL        ch
  C:0BAEH         LINE#         314
  C:0BB0H         LINE#         315
  C:0BB0H         LINE#         316
  C:0BB3H         LINE#         317
  C:0BB3H         LINE#         318
  -------         ENDPROC       _PUTCHAR
  -------         PROC          INT0_ISR
  C:0964H         LINE#         322
  C:096CH         LINE#         325
  C:096FH         LINE#         326
  C:096FH         LINE#         327
  C:098EH         LINE#         328
  C:0997H         LINE#         329
  C:0999H         LINE#         331
  C:0999H         LINE#         332
  C:09B8H         LINE#         333
  C:09C0H         LINE#         334
  C:09C0H         LINE#         335
  -------         ENDPROC       INT0_ISR
  -------         PROC          INT1_ISR
  -------         DO            
  X:0000H         SYMBOL        i
  -------         ENDDO         
BL51 BANKED LINKER/LOCATER V6.22                                                      04/11/2022  01:47:05  PAGE 9


  C:0A21H         LINE#         338
  C:0A36H         LINE#         340
  C:0A3DH         LINE#         342
  C:0A40H         LINE#         343
  C:0A40H         LINE#         344
  C:0A46H         LINE#         345
  C:0A49H         LINE#         346
  C:0A49H         LINE#         347
  C:0A61H         LINE#         348
  C:0A64H         LINE#         349
  C:0A64H         LINE#         350
  C:0A64H         LINE#         351
  -------         ENDPROC       INT1_ISR
  -------         ENDMOD        MAIN

  -------         MODULE        ?C?COPY
  C:044BH         PUBLIC        ?C?COPY
  -------         ENDMOD        ?C?COPY

  -------         MODULE        ?C?CLDOPTR
  C:0471H         PUBLIC        ?C?CLDOPTR
  -------         ENDMOD        ?C?CLDOPTR

  -------         MODULE        ?C?ILDPTR
  C:049EH         PUBLIC        ?C?ILDPTR
  -------         ENDMOD        ?C?ILDPTR

  -------         MODULE        ?C?PLDOPTR
  C:04C9H         PUBLIC        ?C?PLDOPTR
  -------         ENDMOD        ?C?PLDOPTR

  -------         MODULE        ?C?PSTOPTR
  C:04F9H         PUBLIC        ?C?PSTOPTR
  -------         ENDMOD        ?C?PSTOPTR

  -------         MODULE        ?C?ICALL
  C:0552H         PUBLIC        ?C?ICALL
  C:0556H         PUBLIC        ?C?ICALL2
  -------         ENDMOD        ?C?ICALL

  -------         MODULE        PRINTF
  X:0005H         PUBLIC        ?_PRINTF517?BYTE
  X:0005H         PUBLIC        ?_PRINTF?BYTE
  X:0005H         PUBLIC        ?_SPRINTF517?BYTE
  X:0005H         PUBLIC        ?_SPRINTF?BYTE
  C:0081H         PUBLIC        _PRINTF
  C:0081H         PUBLIC        _PRINTF517
  C:007BH         PUBLIC        _SPRINTF
  C:007BH         PUBLIC        _SPRINTF517
  -------         ENDMOD        PRINTF

  -------         MODULE        ?C?CLDPTR
  C:0558H         PUBLIC        ?C?CLDPTR
  -------         ENDMOD        ?C?CLDPTR

  -------         MODULE        ?C?CSTPTR
  C:0571H         PUBLIC        ?C?CSTPTR
BL51 BANKED LINKER/LOCATER V6.22                                                      04/11/2022  01:47:05  PAGE 10


  -------         ENDMOD        ?C?CSTPTR

  -------         MODULE        ?C?PLDIDATA
  C:0583H         PUBLIC        ?C?PLDIDATA
  -------         ENDMOD        ?C?PLDIDATA

  -------         MODULE        ?C?PSTIDATA
  C:058CH         PUBLIC        ?C?PSTIDATA
  -------         ENDMOD        ?C?PSTIDATA

  -------         MODULE        ?C?PLDXDATA
  C:0595H         PUBLIC        ?C?PLDXDATA
  -------         ENDMOD        ?C?PLDXDATA

  -------         MODULE        ?C?PLDIXDATA
  C:059EH         PUBLIC        ?C?PLDIXDATA
  -------         ENDMOD        ?C?PLDIXDATA

  -------         MODULE        ?C?PSTXDATA
  C:05B5H         PUBLIC        ?C?PSTXDATA
  -------         ENDMOD        ?C?PSTXDATA

  -------         MODULE        ?C?PLDPDATA
  C:05BEH         PUBLIC        ?C?PLDPDATA
  -------         ENDMOD        ?C?PLDPDATA

  -------         MODULE        ?C?PSTPDATA
  C:05C7H         PUBLIC        ?C?PSTPDATA
  -------         ENDMOD        ?C?PSTPDATA

  -------         MODULE        ?C?PLDCODE
  C:05D0H         PUBLIC        ?C?PLDCODE
  -------         ENDMOD        ?C?PLDCODE

  -------         MODULE        ?C?CCASE
  C:05DCH         PUBLIC        ?C?CCASE
  -------         ENDMOD        ?C?CCASE

Program Size: data=15.1 xdata=116 code=2991
LINK/LOCATE RUN COMPLETE.  0 WARNING(S),  0 ERROR(S)
